; Function Attrs: mustprogress uwtable
define void @_ZN12colvarmodule8rotationC2ERKNS_10quaternionE(ptr noundef nonnull writeonly align 8 captures(none) dereferenceable(568) initializes((0, 72), (488, 489), (496, 568)) %0, ptr noundef nonnull readonly align 8 captures(none) dereferenceable(32) %1) unnamed_addr #0 align 2 {
  tail call void @llvm.memset.p0.i64(ptr noundef nonnull align 8 dereferenceable(72) %0, i8 0, i64 72, i1 false)
  %3 = getelementptr inbounds nuw i8, ptr %0, i64 496
  tail call void @llvm.memcpy.p0.p0.i64(ptr noundef nonnull align 8 dereferenceable(32) %3, ptr noundef nonnull align 8 dereferenceable(32) %1, i64 32, i1 false), !tbaa.struct !66
  %4 = getelementptr inbounds nuw i8, ptr %0, i64 528
  tail call void @llvm.memset.p0.i64(ptr noundef nonnull align 8 dereferenceable(32) %4, i8 0, i64 32, i1 false)
  %5 = tail call noundef i32 @_ZN12colvarmodule8rotation4initEv(ptr noundef nonnull align 8 dereferenceable(568) %0)
  %6 = getelementptr inbounds nuw i8, ptr %0, i64 560
  store ptr null, ptr %6, align 8, !tbaa !65
  ret void
}